target datalayout = "e-m:e-p270:32:32-p271:32:32-p272:64:64-i64:64-i128:128-f80:128-n8:16:32:64-S128"
target triple = "x86_64-pc-linux-gnu"

%struct._archiveHandle = type { %struct.Archive, i32, ptr, ptr, i64, i64, i32, %struct.sqlparseInfo, i64, i32, ptr, i64, i64, i64, ptr, ptr, ptr, ptr, ptr, ptr, ptr, ptr, ptr, ptr, ptr, ptr, ptr, ptr, ptr, ptr, ptr, ptr, ptr, ptr, ptr, ptr, ptr, ptr, ptr, ptr, ptr, ptr, ptr, ptr, i32, i32, i8, i32, i8, i32, ptr, ptr, ptr, ptr, i32, i32, ptr, ptr, ptr, %struct.pg_compress_specification, i8, i32, i32, ptr, ptr, ptr, ptr, ptr, i32, ptr, i64, i64, i32, i32, i32, i32, ptr, ptr }
%struct.Archive = type { ptr, ptr, i32, ptr, i32, i8, i32, i32, i32, ptr, i32, i8, ptr, ptr, i8, i32, ptr }
%struct.sqlparseInfo = type { i32, i8, ptr }
%struct.pg_compress_specification = type { i32, i32, i32, i32, i8, ptr }
%struct.lclContext = type { ptr, ptr, ptr, ptr }
%struct.CompressFileHandle = type { ptr, ptr, ptr, ptr, ptr, ptr, ptr, ptr, ptr, %struct.pg_compress_specification, ptr }

@.str.29 = private unnamed_addr constant [33 x i8] c"could not close LO data file: %m\00", align 1
@.str.30 = private unnamed_addr constant [16 x i8] c"%u blob_%u.dat\0A\00", align 1
@.str.31 = private unnamed_addr constant [36 x i8] c"could not write to LOs TOC file: %s\00", align 1

; Function Attrs: nounwind uwtable
define internal void @_EndLO(ptr noundef %0, ptr noundef %1, i32 noundef %2) #0 {
  %4 = alloca ptr, align 8
  %5 = alloca ptr, align 8
  %6 = alloca i32, align 4
  %7 = alloca ptr, align 8
  %8 = alloca ptr, align 8
  %9 = alloca [50 x i8], align 16
  %10 = alloca i32, align 4
  store ptr %0, ptr %4, align 8
  store ptr %1, ptr %5, align 8
  store i32 %2, ptr %6, align 4
  call void @llvm.lifetime.start.p0(i64 8, ptr %7) #9
  %11 = load ptr, ptr %4, align 8
  %12 = getelementptr inbounds nuw %struct._archiveHandle, ptr %11, i32 0, i32 63
  %13 = load ptr, ptr %12, align 8
  store ptr %13, ptr %7, align 8
  call void @llvm.lifetime.start.p0(i64 8, ptr %8) #9
  %14 = load ptr, ptr %7, align 8
  %15 = getelementptr inbounds nuw %struct.lclContext, ptr %14, i32 0, i32 2
  %16 = load ptr, ptr %15, align 8
  store ptr %16, ptr %8, align 8
  call void @llvm.lifetime.start.p0(i64 50, ptr %9) #9
  call void @llvm.lifetime.start.p0(i64 4, ptr %10) #9
  %17 = load ptr, ptr %7, align 8
  %18 = getelementptr inbounds nuw %struct.lclContext, ptr %17, i32 0, i32 1
  %19 = load ptr, ptr %18, align 8
  %20 = call zeroext i1 @EndCompressFileHandle(ptr noundef %19)
  br i1 %20, label %25, label %21

21:                                               ; preds = %3
  br label %22

22:                                               ; preds = %21
  call void (i32, i32, ptr, ...) @pg_log_generic(i32 noundef 4, i32 noundef 0, ptr noundef @.str.29)
  call void @exit_nicely(i32 noundef 1) #11
  unreachable

23:                                               ; No predecessors!
  br label %24

24:                                               ; preds = %23
  br label %25

25:                                               ; preds = %24, %3
  %26 = load ptr, ptr %7, align 8
  %27 = getelementptr inbounds nuw %struct.lclContext, ptr %26, i32 0, i32 1
  store ptr null, ptr %27, align 8
  %28 = getelementptr inbounds [50 x i8], ptr %9, i64 0, i64 0
  %29 = load i32, ptr %6, align 4
  %30 = load i32, ptr %6, align 4
  %31 = call i32 (ptr, i64, ptr, ...) @pg_snprintf(ptr noundef %28, i64 noundef 50, ptr noundef @.str.30, i32 noundef %29, i32 noundef %30)
  store i32 %31, ptr %10, align 4
  %32 = load ptr, ptr %8, align 8
  %33 = getelementptr inbounds nuw %struct.CompressFileHandle, ptr %32, i32 0, i32 3
  %34 = load ptr, ptr %33, align 8
  %35 = getelementptr inbounds [50 x i8], ptr %9, i64 0, i64 0
  %36 = load i32, ptr %10, align 4
  %37 = sext i32 %36 to i64
  %38 = load ptr, ptr %8, align 8
  %39 = call zeroext i1 %34(ptr noundef %35, i64 noundef %37, ptr noundef %38)
  br i1 %39, label %55, label %40

40:                                               ; preds = %25
  %41 = call ptr @__errno_location() #12
  %42 = load i32, ptr %41, align 4
  %43 = icmp eq i32 %42, 0
  br i1 %43, label %44, label %46

44:                                               ; preds = %40
  %45 = call ptr @__errno_location() #12
  store i32 28, ptr %45, align 4
  br label %46

46:                                               ; preds = %44, %40
  br label %47

47:                                               ; preds = %46
  %48 = load ptr, ptr %8, align 8
  %49 = getelementptr inbounds nuw %struct.CompressFileHandle, ptr %48, i32 0, i32 8
  %50 = load ptr, ptr %49, align 8
  %51 = load ptr, ptr %8, align 8
  %52 = call ptr %50(ptr noundef %51)
  call void (i32, i32, ptr, ...) @pg_log_generic(i32 noundef 4, i32 noundef 0, ptr noundef @.str.31, ptr noundef %52)
  call void @exit_nicely(i32 noundef 1) #11
  unreachable

53:                                               ; No predecessors!
  br label %54

54:                                               ; preds = %53
  br label %55

55:                                               ; preds = %54, %25
  call void @llvm.lifetime.end.p0(i64 4, ptr %10) #9
  call void @llvm.lifetime.end.p0(i64 50, ptr %9) #9
  call void @llvm.lifetime.end.p0(i64 8, ptr %8) #9
  call void @llvm.lifetime.end.p0(i64 8, ptr %7) #9
  ret void
}