; Function Attrs: nounwind uwtable
define internal void @_EndLO(ptr noundef readonly captures(none) %0, ptr readnone captures(none) %1, i32 noundef %2) #0 {
  %4 = alloca [50 x i8], align 16
  %5 = getelementptr inbounds nuw i8, ptr %0, i64 592
  %6 = load ptr, ptr %5, align 8
  %7 = getelementptr inbounds nuw i8, ptr %6, i64 16
  %8 = load ptr, ptr %7, align 8
  call void @llvm.lifetime.start.p0(i64 50, ptr nonnull %4) #14
  %9 = getelementptr inbounds nuw i8, ptr %6, i64 8
  %10 = load ptr, ptr %9, align 8
  %11 = tail call zeroext i1 @EndCompressFileHandle(ptr noundef %10) #14
  br i1 %11, label %13, label %12

12:                                               ; preds = %3
  tail call void (i32, i32, ptr, ...) @pg_log_generic(i32 noundef 4, i32 noundef 0, ptr noundef nonnull @.str.29) #14
  tail call void @exit_nicely(i32 noundef 1) #15
  unreachable

13:                                               ; preds = %3
  store ptr null, ptr %9, align 8
  %14 = call i32 (ptr, i64, ptr, ...) @pg_snprintf(ptr noundef nonnull %4, i64 noundef 50, ptr noundef nonnull @.str.30, i32 noundef %2, i32 noundef %2) #14
  %15 = getelementptr inbounds nuw i8, ptr %8, i64 24
  %16 = load ptr, ptr %15, align 8
  %17 = sext i32 %14 to i64
  %18 = call zeroext i1 %16(ptr noundef nonnull %4, i64 noundef %17, ptr noundef %8) #14
  br i1 %18, label %28, label %19

19:                                               ; preds = %13
  %20 = tail call ptr @__errno_location() #16
  %21 = load i32, ptr %20, align 4
  %22 = icmp eq i32 %21, 0
  br i1 %22, label %23, label %24

23:                                               ; preds = %19
  store i32 28, ptr %20, align 4
  br label %24

24:                                               ; preds = %19, %23
  %25 = getelementptr inbounds nuw i8, ptr %8, i64 64
  %26 = load ptr, ptr %25, align 8
  %27 = call ptr %26(ptr noundef nonnull %8) #14
  call void (i32, i32, ptr, ...) @pg_log_generic(i32 noundef 4, i32 noundef 0, ptr noundef nonnull @.str.31, ptr noundef %27) #14
  call void @exit_nicely(i32 noundef 1) #15
  unreachable

28:                                               ; preds = %13
  call void @llvm.lifetime.end.p0(i64 50, ptr nonnull %4) #14
  ret void
}